target datalayout = "e-m:e-p270:32:32-p271:32:32-p272:64:64-i64:64-i128:128-f80:128-n8:16:32:64-S128"
target triple = "x86_64-pc-linux-gnu"

%union.ListCell = type { ptr }
%struct.ForEachState = type { ptr, i32 }
%struct.PartitionBoundInfoData = type { i32, i32, ptr, ptr, ptr, i32, ptr, i32, i32 }
%struct.List = type { i32, i32, i32, ptr, [0 x %union.ListCell] }

; Function Attrs: inlinehint nounwind uwtable
define internal i32 @list_length(ptr noundef %0) #5 {
  %2 = alloca ptr, align 8
  store ptr %0, ptr %2, align 8
  %3 = load ptr, ptr %2, align 8
  %4 = icmp ne ptr %3, null
  br i1 %4, label %5, label %9

5:                                                ; preds = %1
  %6 = load ptr, ptr %2, align 8
  %7 = getelementptr inbounds nuw %struct.List, ptr %6, i32 0, i32 1
  %8 = load i32, ptr %7, align 4
  br label %10

9:                                                ; preds = %1
  br label %10

10:                                               ; preds = %9, %5
  %11 = phi i32 [ %8, %5 ], [ 0, %9 ]
  ret i32 %11
}

; Function Attrs: nounwind uwtable
define internal ptr @build_merged_partition_bounds(i8 noundef signext %0, ptr noundef %1, ptr noundef %2, ptr noundef %3, i32 noundef %4, i32 noundef %5) #0 {
  %7 = alloca i8, align 1
  %8 = alloca ptr, align 8
  %9 = alloca ptr, align 8
  %10 = alloca ptr, align 8
  %11 = alloca i32, align 4
  %12 = alloca i32, align 4
  %13 = alloca ptr, align 8
  %14 = alloca i32, align 4
  %15 = alloca i32, align 4
  %16 = alloca ptr, align 8
  %17 = alloca %struct.ForEachState, align 8
  %18 = alloca %struct.ForEachState, align 8
  %19 = alloca %struct.ForEachState, align 8
  store i8 %0, ptr %7, align 1
  store ptr %1, ptr %8, align 8
  store ptr %2, ptr %9, align 8
  store ptr %3, ptr %10, align 8
  store i32 %4, ptr %11, align 4
  store i32 %5, ptr %12, align 4
  call void @llvm.lifetime.start.p0(i64 8, ptr %13) #9
  call void @llvm.lifetime.start.p0(i64 4, ptr %14) #9
  %20 = load ptr, ptr %8, align 8
  %21 = call i32 @list_length(ptr noundef %20)
  store i32 %21, ptr %14, align 4
  call void @llvm.lifetime.start.p0(i64 4, ptr %15) #9
  call void @llvm.lifetime.start.p0(i64 8, ptr %16) #9
  %22 = call ptr @palloc(i64 noundef 56)
  store ptr %22, ptr %13, align 8
  %23 = load i8, ptr %7, align 1
  %24 = sext i8 %23 to i32
  %25 = load ptr, ptr %13, align 8
  %26 = getelementptr inbounds nuw %struct.PartitionBoundInfoData, ptr %25, i32 0, i32 0
  store i32 %24, ptr %26, align 8
  %27 = load i32, ptr %14, align 4
  %28 = load ptr, ptr %13, align 8
  %29 = getelementptr inbounds nuw %struct.PartitionBoundInfoData, ptr %28, i32 0, i32 1
  store i32 %27, ptr %29, align 4
  %30 = load i32, ptr %14, align 4
  %31 = sext i32 %30 to i64
  %32 = mul i64 8, %31
  %33 = call ptr @palloc(i64 noundef %32)
  %34 = load ptr, ptr %13, align 8
  %35 = getelementptr inbounds nuw %struct.PartitionBoundInfoData, ptr %34, i32 0, i32 2
  store ptr %33, ptr %35, align 8
  store i32 0, ptr %15, align 4
  call void @llvm.lifetime.start.p0(i64 16, ptr %17) #9
  %36 = getelementptr inbounds nuw %struct.ForEachState, ptr %17, i32 0, i32 0
  %37 = load ptr, ptr %8, align 8
  store ptr %37, ptr %36, align 8
  %38 = getelementptr inbounds nuw %struct.ForEachState, ptr %17, i32 0, i32 1
  store i32 0, ptr %38, align 8
  %39 = getelementptr i8, ptr %17, i64 12
  call void @llvm.memset.p0.i64(ptr align 4 %39, i8 0, i64 4, i1 false)
  br label %40

40:                                               ; preds = %76, %6
  %41 = getelementptr inbounds nuw %struct.ForEachState, ptr %17, i32 0, i32 0
  %42 = load ptr, ptr %41, align 8
  %43 = icmp ne ptr %42, null
  br i1 %43, label %44, label %61

44:                                               ; preds = %40
  %45 = getelementptr inbounds nuw %struct.ForEachState, ptr %17, i32 0, i32 1
  %46 = load i32, ptr %45, align 8
  %47 = getelementptr inbounds nuw %struct.ForEachState, ptr %17, i32 0, i32 0
  %48 = load ptr, ptr %47, align 8
  %49 = getelementptr inbounds nuw %struct.List, ptr %48, i32 0, i32 1
  %50 = load i32, ptr %49, align 4
  %51 = icmp slt i32 %46, %50
  br i1 %51, label %52, label %61

52:                                               ; preds = %44
  %53 = getelementptr inbounds nuw %struct.ForEachState, ptr %17, i32 0, i32 0
  %54 = load ptr, ptr %53, align 8
  %55 = getelementptr inbounds nuw %struct.List, ptr %54, i32 0, i32 3
  %56 = load ptr, ptr %55, align 8
  %57 = getelementptr inbounds nuw %struct.ForEachState, ptr %17, i32 0, i32 1
  %58 = load i32, ptr %57, align 8
  %59 = sext i32 %58 to i64
  %60 = getelementptr inbounds %union.ListCell, ptr %56, i64 %59
  store ptr %60, ptr %16, align 8
  br label %62

61:                                               ; preds = %44, %40
  store ptr null, ptr %16, align 8
  br label %62

62:                                               ; preds = %61, %52
  %63 = phi i32 [ 1, %52 ], [ 0, %61 ]
  %64 = icmp ne i32 %63, 0
  br i1 %64, label %66, label %65

65:                                               ; preds = %62
  call void @llvm.lifetime.end.p0(i64 16, ptr %17) #9
  br label %80

66:                                               ; preds = %62
  %67 = load ptr, ptr %16, align 8
  %68 = load ptr, ptr %67, align 8
  %69 = load ptr, ptr %13, align 8
  %70 = getelementptr inbounds nuw %struct.PartitionBoundInfoData, ptr %69, i32 0, i32 2
  %71 = load ptr, ptr %70, align 8
  %72 = load i32, ptr %15, align 4
  %73 = add i32 %72, 1
  store i32 %73, ptr %15, align 4
  %74 = sext i32 %72 to i64
  %75 = getelementptr inbounds ptr, ptr %71, i64 %74
  store ptr %68, ptr %75, align 8
  br label %76

76:                                               ; preds = %66
  %77 = getelementptr inbounds nuw %struct.ForEachState, ptr %17, i32 0, i32 1
  %78 = load i32, ptr %77, align 8
  %79 = add i32 %78, 1
  store i32 %79, ptr %77, align 8
  br label %40, !llvm.loop !62

80:                                               ; preds = %65
  %81 = load i8, ptr %7, align 1
  %82 = sext i8 %81 to i32
  %83 = icmp eq i32 %82, 114
  br i1 %83, label %84, label %140

84:                                               ; preds = %80
  %85 = load i32, ptr %14, align 4
  %86 = sext i32 %85 to i64
  %87 = mul i64 8, %86
  %88 = call ptr @palloc(i64 noundef %87)
  %89 = load ptr, ptr %13, align 8
  %90 = getelementptr inbounds nuw %struct.PartitionBoundInfoData, ptr %89, i32 0, i32 3
  store ptr %88, ptr %90, align 8
  store i32 0, ptr %15, align 4
  call void @llvm.lifetime.start.p0(i64 16, ptr %18) #9
  %91 = getelementptr inbounds nuw %struct.ForEachState, ptr %18, i32 0, i32 0
  %92 = load ptr, ptr %9, align 8
  store ptr %92, ptr %91, align 8
  %93 = getelementptr inbounds nuw %struct.ForEachState, ptr %18, i32 0, i32 1
  store i32 0, ptr %93, align 8
  %94 = getelementptr i8, ptr %18, i64 12
  call void @llvm.memset.p0.i64(ptr align 4 %94, i8 0, i64 4, i1 false)
  br label %95

95:                                               ; preds = %131, %84
  %96 = getelementptr inbounds nuw %struct.ForEachState, ptr %18, i32 0, i32 0
  %97 = load ptr, ptr %96, align 8
  %98 = icmp ne ptr %97, null
  br i1 %98, label %99, label %116

99:                                               ; preds = %95
  %100 = getelementptr inbounds nuw %struct.ForEachState, ptr %18, i32 0, i32 1
  %101 = load i32, ptr %100, align 8
  %102 = getelementptr inbounds nuw %struct.ForEachState, ptr %18, i32 0, i32 0
  %103 = load ptr, ptr %102, align 8
  %104 = getelementptr inbounds nuw %struct.List, ptr %103, i32 0, i32 1
  %105 = load i32, ptr %104, align 4
  %106 = icmp slt i32 %101, %105
  br i1 %106, label %107, label %116

107:                                              ; preds = %99
  %108 = getelementptr inbounds nuw %struct.ForEachState, ptr %18, i32 0, i32 0
  %109 = load ptr, ptr %108, align 8
  %110 = getelementptr inbounds nuw %struct.List, ptr %109, i32 0, i32 3
  %111 = load ptr, ptr %110, align 8
  %112 = getelementptr inbounds nuw %struct.ForEachState, ptr %18, i32 0, i32 1
  %113 = load i32, ptr %112, align 8
  %114 = sext i32 %113 to i64
  %115 = getelementptr inbounds %union.ListCell, ptr %111, i64 %114
  store ptr %115, ptr %16, align 8
  br label %117

116:                                              ; preds = %99, %95
  store ptr null, ptr %16, align 8
  br label %117

117:                                              ; preds = %116, %107
  %118 = phi i32 [ 1, %107 ], [ 0, %116 ]
  %119 = icmp ne i32 %118, 0
  br i1 %119, label %121, label %120

120:                                              ; preds = %117
  call void @llvm.lifetime.end.p0(i64 16, ptr %18) #9
  br label %135

121:                                              ; preds = %117
  %122 = load ptr, ptr %16, align 8
  %123 = load ptr, ptr %122, align 8
  %124 = load ptr, ptr %13, align 8
  %125 = getelementptr inbounds nuw %struct.PartitionBoundInfoData, ptr %124, i32 0, i32 3
  %126 = load ptr, ptr %125, align 8
  %127 = load i32, ptr %15, align 4
  %128 = add i32 %127, 1
  store i32 %128, ptr %15, align 4
  %129 = sext i32 %127 to i64
  %130 = getelementptr inbounds ptr, ptr %126, i64 %129
  store ptr %123, ptr %130, align 8
  br label %131

131:                                              ; preds = %121
  %132 = getelementptr inbounds nuw %struct.ForEachState, ptr %18, i32 0, i32 1
  %133 = load i32, ptr %132, align 8
  %134 = add i32 %133, 1
  store i32 %134, ptr %132, align 8
  br label %95, !llvm.loop !63

135:                                              ; preds = %120
  %136 = load ptr, ptr %10, align 8
  %137 = call ptr @lappend_int(ptr noundef %136, i32 noundef -1)
  store ptr %137, ptr %10, align 8
  %138 = load i32, ptr %14, align 4
  %139 = add i32 %138, 1
  store i32 %139, ptr %14, align 4
  br label %143

140:                                              ; preds = %80
  %141 = load ptr, ptr %13, align 8
  %142 = getelementptr inbounds nuw %struct.PartitionBoundInfoData, ptr %141, i32 0, i32 3
  store ptr null, ptr %142, align 8
  br label %143

143:                                              ; preds = %140, %135
  %144 = load ptr, ptr %13, align 8
  %145 = getelementptr inbounds nuw %struct.PartitionBoundInfoData, ptr %144, i32 0, i32 4
  store ptr null, ptr %145, align 8
  %146 = load i32, ptr %14, align 4
  %147 = load ptr, ptr %13, align 8
  %148 = getelementptr inbounds nuw %struct.PartitionBoundInfoData, ptr %147, i32 0, i32 5
  store i32 %146, ptr %148, align 8
  %149 = load i32, ptr %14, align 4
  %150 = sext i32 %149 to i64
  %151 = mul i64 4, %150
  %152 = call ptr @palloc(i64 noundef %151)
  %153 = load ptr, ptr %13, align 8
  %154 = getelementptr inbounds nuw %struct.PartitionBoundInfoData, ptr %153, i32 0, i32 6
  store ptr %152, ptr %154, align 8
  store i32 0, ptr %15, align 4
  call void @llvm.lifetime.start.p0(i64 16, ptr %19) #9
  %155 = getelementptr inbounds nuw %struct.ForEachState, ptr %19, i32 0, i32 0
  %156 = load ptr, ptr %10, align 8
  store ptr %156, ptr %155, align 8
  %157 = getelementptr inbounds nuw %struct.ForEachState, ptr %19, i32 0, i32 1
  store i32 0, ptr %157, align 8
  %158 = getelementptr i8, ptr %19, i64 12
  call void @llvm.memset.p0.i64(ptr align 4 %158, i8 0, i64 4, i1 false)
  br label %159

159:                                              ; preds = %195, %143
  %160 = getelementptr inbounds nuw %struct.ForEachState, ptr %19, i32 0, i32 0
  %161 = load ptr, ptr %160, align 8
  %162 = icmp ne ptr %161, null
  br i1 %162, label %163, label %180

163:                                              ; preds = %159
  %164 = getelementptr inbounds nuw %struct.ForEachState, ptr %19, i32 0, i32 1
  %165 = load i32, ptr %164, align 8
  %166 = getelementptr inbounds nuw %struct.ForEachState, ptr %19, i32 0, i32 0
  %167 = load ptr, ptr %166, align 8
  %168 = getelementptr inbounds nuw %struct.List, ptr %167, i32 0, i32 1
  %169 = load i32, ptr %168, align 4
  %170 = icmp slt i32 %165, %169
  br i1 %170, label %171, label %180

171:                                              ; preds = %163
  %172 = getelementptr inbounds nuw %struct.ForEachState, ptr %19, i32 0, i32 0
  %173 = load ptr, ptr %172, align 8
  %174 = getelementptr inbounds nuw %struct.List, ptr %173, i32 0, i32 3
  %175 = load ptr, ptr %174, align 8
  %176 = getelementptr inbounds nuw %struct.ForEachState, ptr %19, i32 0, i32 1
  %177 = load i32, ptr %176, align 8
  %178 = sext i32 %177 to i64
  %179 = getelementptr inbounds %union.ListCell, ptr %175, i64 %178
  store ptr %179, ptr %16, align 8
  br label %181

180:                                              ; preds = %163, %159
  store ptr null, ptr %16, align 8
  br label %181

181:                                              ; preds = %180, %171
  %182 = phi i32 [ 1, %171 ], [ 0, %180 ]
  %183 = icmp ne i32 %182, 0
  br i1 %183, label %185, label %184

184:                                              ; preds = %181
  call void @llvm.lifetime.end.p0(i64 16, ptr %19) #9
  br label %199

185:                                              ; preds = %181
  %186 = load ptr, ptr %16, align 8
  %187 = load i32, ptr %186, align 8
  %188 = load ptr, ptr %13, align 8
  %189 = getelementptr inbounds nuw %struct.PartitionBoundInfoData, ptr %188, i32 0, i32 6
  %190 = load ptr, ptr %189, align 8
  %191 = load i32, ptr %15, align 4
  %192 = add i32 %191, 1
  store i32 %192, ptr %15, align 4
  %193 = sext i32 %191 to i64
  %194 = getelementptr inbounds i32, ptr %190, i64 %193
  store i32 %187, ptr %194, align 4
  br label %195

195:                                              ; preds = %185
  %196 = getelementptr inbounds nuw %struct.ForEachState, ptr %19, i32 0, i32 1
  %197 = load i32, ptr %196, align 8
  %198 = add i32 %197, 1
  store i32 %198, ptr %196, align 8
  br label %159, !llvm.loop !64

199:                                              ; preds = %184
  %200 = load i32, ptr %11, align 4
  %201 = load ptr, ptr %13, align 8
  %202 = getelementptr inbounds nuw %struct.PartitionBoundInfoData, ptr %201, i32 0, i32 7
  store i32 %200, ptr %202, align 8
  %203 = load i32, ptr %12, align 4
  %204 = load ptr, ptr %13, align 8
  %205 = getelementptr inbounds nuw %struct.PartitionBoundInfoData, ptr %204, i32 0, i32 8
  store i32 %203, ptr %205, align 4
  %206 = load ptr, ptr %13, align 8
  call void @llvm.lifetime.end.p0(i64 8, ptr %16) #9
  call void @llvm.lifetime.end.p0(i64 4, ptr %15) #9
  call void @llvm.lifetime.end.p0(i64 4, ptr %14) #9
  call void @llvm.lifetime.end.p0(i64 8, ptr %13) #9
  ret ptr %206
}