; Function Attrs: nounwind uwtable
define internal fastcc noundef ptr @build_merged_partition_bounds(i8 noundef signext %0, ptr noundef readonly captures(address_is_null) %1, ptr noundef readonly captures(address_is_null) %2, ptr noundef %3, i32 noundef %4, i32 noundef %5) unnamed_addr #0 {
  %.not.i = icmp eq ptr %1, null
  br i1 %.not.i, label %list_length.exit, label %7

7:                                                ; preds = %6
  %8 = getelementptr inbounds nuw i8, ptr %1, i64 4
  %9 = load i32, ptr %8, align 4
  br label %list_length.exit

list_length.exit:                                 ; preds = %6, %7
  %10 = phi i32 [ %9, %7 ], [ 0, %6 ]
  %11 = tail call ptr @palloc(i64 noundef 56) #12
  %12 = sext i8 %0 to i32
  store i32 %12, ptr %11, align 8
  %13 = getelementptr inbounds nuw i8, ptr %11, i64 4
  store i32 %10, ptr %13, align 4
  %14 = sext i32 %10 to i64
  %15 = shl nsw i64 %14, 3
  %16 = tail call ptr @palloc(i64 noundef %15) #12
  %17 = getelementptr inbounds nuw i8, ptr %11, i64 8
  store ptr %16, ptr %17, align 8
  %18 = getelementptr inbounds nuw i8, ptr %1, i64 4
  br i1 %.not.i, label %._crit_edge, label %.lr.ph

.lr.ph:                                           ; preds = %list_length.exit
  %19 = getelementptr inbounds nuw i8, ptr %1, i64 16
  %20 = load i32, ptr %18, align 4
  %21 = icmp sgt i32 %20, 0
  br i1 %21, label %.lr.ph79, label %._crit_edge

._crit_edge:                                      ; preds = %.lr.ph79, %.lr.ph, %list_length.exit
  %22 = icmp eq i8 %0, 114
  br i1 %22, label %31, label %48

.lr.ph79:                                         ; preds = %.lr.ph, %.lr.ph79
  %indvars.iv = phi i64 [ %indvars.iv.next, %.lr.ph79 ], [ 0, %.lr.ph ]
  %23 = load ptr, ptr %19, align 8
  %24 = getelementptr inbounds nuw %union.ListCell, ptr %23, i64 %indvars.iv
  %25 = load ptr, ptr %24, align 8
  %26 = load ptr, ptr %17, align 8
  %indvars.iv.next = add nuw nsw i64 %indvars.iv, 1
  %27 = getelementptr inbounds nuw ptr, ptr %26, i64 %indvars.iv
  store ptr %25, ptr %27, align 8
  %28 = load i32, ptr %18, align 4
  %29 = sext i32 %28 to i64
  %30 = icmp slt i64 %indvars.iv.next, %29
  br i1 %30, label %.lr.ph79, label %._crit_edge

31:                                               ; preds = %._crit_edge
  %32 = tail call ptr @palloc(i64 noundef %15) #12
  %33 = getelementptr inbounds nuw i8, ptr %11, i64 16
  store ptr %32, ptr %33, align 8
  %34 = getelementptr inbounds nuw i8, ptr %2, i64 4
  %.not60 = icmp eq ptr %2, null
  br i1 %.not60, label %._crit_edge84, label %.lr.ph83

.lr.ph83:                                         ; preds = %31
  %35 = getelementptr inbounds nuw i8, ptr %2, i64 16
  %36 = load i32, ptr %34, align 4
  %37 = icmp sgt i32 %36, 0
  br i1 %37, label %.lr.ph88, label %._crit_edge84

._crit_edge84:                                    ; preds = %.lr.ph88, %.lr.ph83, %31
  %38 = tail call ptr @lappend_int(ptr noundef %3, i32 noundef -1) #12
  %39 = add i32 %10, 1
  %.pre = sext i32 %39 to i64
  br label %50

.lr.ph88:                                         ; preds = %.lr.ph83, %.lr.ph88
  %indvars.iv101 = phi i64 [ %indvars.iv.next102, %.lr.ph88 ], [ 0, %.lr.ph83 ]
  %40 = load ptr, ptr %35, align 8
  %41 = getelementptr inbounds nuw %union.ListCell, ptr %40, i64 %indvars.iv101
  %42 = load ptr, ptr %41, align 8
  %43 = load ptr, ptr %33, align 8
  %indvars.iv.next102 = add nuw nsw i64 %indvars.iv101, 1
  %44 = getelementptr inbounds nuw ptr, ptr %43, i64 %indvars.iv101
  store ptr %42, ptr %44, align 8
  %45 = load i32, ptr %34, align 4
  %46 = sext i32 %45 to i64
  %47 = icmp slt i64 %indvars.iv.next102, %46
  br i1 %47, label %.lr.ph88, label %._crit_edge84

48:                                               ; preds = %._crit_edge
  %49 = getelementptr inbounds nuw i8, ptr %11, i64 16
  store ptr null, ptr %49, align 8
  br label %50

50:                                               ; preds = %48, %._crit_edge84
  %.pre-phi = phi i64 [ %14, %48 ], [ %.pre, %._crit_edge84 ]
  %.052 = phi i32 [ %10, %48 ], [ %39, %._crit_edge84 ]
  %.0 = phi ptr [ %3, %48 ], [ %38, %._crit_edge84 ]
  %51 = getelementptr inbounds nuw i8, ptr %11, i64 24
  store ptr null, ptr %51, align 8
  %52 = getelementptr inbounds nuw i8, ptr %11, i64 32
  store i32 %.052, ptr %52, align 8
  %53 = shl nsw i64 %.pre-phi, 2
  %54 = tail call ptr @palloc(i64 noundef %53) #12
  %55 = getelementptr inbounds nuw i8, ptr %11, i64 40
  store ptr %54, ptr %55, align 8
  %56 = getelementptr inbounds nuw i8, ptr %.0, i64 4
  %.not62 = icmp eq ptr %.0, null
  br i1 %.not62, label %._crit_edge93, label %.lr.ph92

.lr.ph92:                                         ; preds = %50
  %57 = getelementptr inbounds nuw i8, ptr %.0, i64 16
  %58 = load i32, ptr %56, align 4
  %59 = icmp sgt i32 %58, 0
  br i1 %59, label %.lr.ph97, label %._crit_edge93

._crit_edge93:                                    ; preds = %.lr.ph97, %.lr.ph92, %50
  %60 = getelementptr inbounds nuw i8, ptr %11, i64 48
  store i32 %4, ptr %60, align 8
  %61 = getelementptr inbounds nuw i8, ptr %11, i64 52
  store i32 %5, ptr %61, align 4
  ret ptr %11

.lr.ph97:                                         ; preds = %.lr.ph92, %.lr.ph97
  %indvars.iv106 = phi i64 [ %indvars.iv.next107, %.lr.ph97 ], [ 0, %.lr.ph92 ]
  %62 = load ptr, ptr %57, align 8
  %63 = getelementptr inbounds nuw %union.ListCell, ptr %62, i64 %indvars.iv106
  %64 = load i32, ptr %63, align 8
  %65 = load ptr, ptr %55, align 8
  %indvars.iv.next107 = add nuw nsw i64 %indvars.iv106, 1
  %66 = getelementptr inbounds nuw i32, ptr %65, i64 %indvars.iv106
  store i32 %64, ptr %66, align 4
  %67 = load i32, ptr %56, align 4
  %68 = sext i32 %67 to i64
  %69 = icmp slt i64 %indvars.iv.next107, %68
  br i1 %69, label %.lr.ph97, label %._crit_edge93
}